; Function Attrs: mustprogress uwtable
define internal noundef zeroext i1 @"_ZNSt17_Function_handlerIFvvEZN3gmx11PullElement16schedulePostStepEldRKSt8functionIFvS3_IS0_EEEE3$_0E10_M_managerERSt9_Any_dataRKSB_St18_Manager_operation"(ptr nocapture noundef nonnull align 8 dereferenceable(16) %0, ptr nocapture noundef nonnull readonly align 8 dereferenceable(16) %1, i32 noundef %2) #0 align 2 {
  switch i32 %2, label %"_ZNSt14_Function_base13_Base_managerIZN3gmx11PullElement16schedulePostStepEldRKSt8functionIFvS3_IFvvEEEEE3$_0E10_M_managerERSt9_Any_dataRKSC_St18_Manager_operation.exit" [
    i32 0, label %4
    i32 1, label %5
    i32 3, label %8
    i32 2, label %6
  ]

4:                                                ; preds = %3
  store ptr @"_ZTIZN3gmx11PullElement16schedulePostStepEldRKSt8functionIFvS1_IFvvEEEEE3$_0", ptr %0, align 8
  br label %"_ZNSt14_Function_base13_Base_managerIZN3gmx11PullElement16schedulePostStepEldRKSt8functionIFvS3_IFvvEEEEE3$_0E10_M_managerERSt9_Any_dataRKSC_St18_Manager_operation.exit"

5:                                                ; preds = %3
  %.val = load ptr, ptr %1, align 8
  store ptr %.val, ptr %0, align 8
  br label %"_ZNSt14_Function_base13_Base_managerIZN3gmx11PullElement16schedulePostStepEldRKSt8functionIFvS3_IFvvEEEEE3$_0E10_M_managerERSt9_Any_dataRKSC_St18_Manager_operation.exit"

6:                                                ; preds = %3
  %.val6 = load ptr, ptr %1, align 8
  %7 = tail call noalias noundef nonnull dereferenceable(24) ptr @_Znwm(i64 noundef 24) #24
  tail call void @llvm.memcpy.p0.p0.i64(ptr noundef nonnull align 16 dereferenceable(24) %7, ptr noundef nonnull align 8 dereferenceable(24) %.val6, i64 24, i1 false)
  store ptr %7, ptr %0, align 8
  br label %"_ZNSt14_Function_base13_Base_managerIZN3gmx11PullElement16schedulePostStepEldRKSt8functionIFvS3_IFvvEEEEE3$_0E10_M_managerERSt9_Any_dataRKSC_St18_Manager_operation.exit"

8:                                                ; preds = %3
  %.val7.i = load ptr, ptr %0, align 8
  %9 = icmp eq ptr %.val7.i, null
  br i1 %9, label %"_ZNSt14_Function_base13_Base_managerIZN3gmx11PullElement16schedulePostStepEldRKSt8functionIFvS3_IFvvEEEEE3$_0E10_M_managerERSt9_Any_dataRKSC_St18_Manager_operation.exit", label %10

10:                                               ; preds = %8
  tail call void @_ZdlPv(ptr noundef nonnull %.val7.i) #23
  br label %"_ZNSt14_Function_base13_Base_managerIZN3gmx11PullElement16schedulePostStepEldRKSt8functionIFvS3_IFvvEEEEE3$_0E10_M_managerERSt9_Any_dataRKSC_St18_Manager_operation.exit"

"_ZNSt14_Function_base13_Base_managerIZN3gmx11PullElement16schedulePostStepEldRKSt8functionIFvS3_IFvvEEEEE3$_0E10_M_managerERSt9_Any_dataRKSC_St18_Manager_operation.exit": ; preds = %3, %10, %8, %6, %5, %4
  ret i1 false
}